target datalayout = "e-m:e-p270:32:32-p271:32:32-p272:64:64-i64:64-i128:128-f80:128-n8:16:32:64-S128"
target triple = "x86_64-pc-linux-gnu"

%struct._cms_typehandler_struct = type { i32, ptr, ptr, ptr, ptr, ptr, i32 }
%struct.cmsMHC2Type = type { i32, ptr, ptr, ptr, double, double, [3 x [4 x double]] }

; Function Attrs: nounwind uwtable
define internal void @Type_MHC2_Free(ptr noundef %0, ptr noundef %1) #0 {
  %3 = alloca ptr, align 8
  %4 = alloca ptr, align 8
  %5 = alloca ptr, align 8
  store ptr %0, ptr %3, align 8
  store ptr %1, ptr %4, align 8
  %6 = load ptr, ptr %4, align 8
  store ptr %6, ptr %5, align 8
  %7 = load ptr, ptr %5, align 8
  %8 = getelementptr inbounds %struct.cmsMHC2Type, ptr %7, i32 0, i32 1
  %9 = load ptr, ptr %8, align 8
  %10 = icmp ne ptr %9, null
  br i1 %10, label %11, label %18

11:                                               ; preds = %2
  %12 = load ptr, ptr %3, align 8
  %13 = getelementptr inbounds %struct._cms_typehandler_struct, ptr %12, i32 0, i32 5
  %14 = load ptr, ptr %13, align 8
  %15 = load ptr, ptr %5, align 8
  %16 = getelementptr inbounds %struct.cmsMHC2Type, ptr %15, i32 0, i32 1
  %17 = load ptr, ptr %16, align 8
  call void @_cmsFree(ptr noundef %14, ptr noundef %17)
  br label %18

18:                                               ; preds = %11, %2
  %19 = load ptr, ptr %5, align 8
  %20 = getelementptr inbounds %struct.cmsMHC2Type, ptr %19, i32 0, i32 2
  %21 = load ptr, ptr %20, align 8
  %22 = icmp ne ptr %21, null
  br i1 %22, label %23, label %30

23:                                               ; preds = %18
  %24 = load ptr, ptr %3, align 8
  %25 = getelementptr inbounds %struct._cms_typehandler_struct, ptr %24, i32 0, i32 5
  %26 = load ptr, ptr %25, align 8
  %27 = load ptr, ptr %5, align 8
  %28 = getelementptr inbounds %struct.cmsMHC2Type, ptr %27, i32 0, i32 2
  %29 = load ptr, ptr %28, align 8
  call void @_cmsFree(ptr noundef %26, ptr noundef %29)
  br label %30

30:                                               ; preds = %23, %18
  %31 = load ptr, ptr %5, align 8
  %32 = getelementptr inbounds %struct.cmsMHC2Type, ptr %31, i32 0, i32 3
  %33 = load ptr, ptr %32, align 8
  %34 = icmp ne ptr %33, null
  br i1 %34, label %35, label %42

35:                                               ; preds = %30
  %36 = load ptr, ptr %3, align 8
  %37 = getelementptr inbounds %struct._cms_typehandler_struct, ptr %36, i32 0, i32 5
  %38 = load ptr, ptr %37, align 8
  %39 = load ptr, ptr %5, align 8
  %40 = getelementptr inbounds %struct.cmsMHC2Type, ptr %39, i32 0, i32 3
  %41 = load ptr, ptr %40, align 8
  call void @_cmsFree(ptr noundef %38, ptr noundef %41)
  br label %42

42:                                               ; preds = %35, %30
  %43 = load ptr, ptr %3, align 8
  %44 = getelementptr inbounds %struct._cms_typehandler_struct, ptr %43, i32 0, i32 5
  %45 = load ptr, ptr %44, align 8
  %46 = load ptr, ptr %4, align 8
  call void @_cmsFree(ptr noundef %45, ptr noundef %46)
  ret void
}