; Function Attrs: nounwind uwtable
define internal void @Type_MHC2_Free(ptr nocapture noundef readonly %0, ptr noundef %1) #0 {
  %3 = getelementptr inbounds i8, ptr %1, i64 8
  %4 = load ptr, ptr %3, align 8
  %.not = icmp eq ptr %4, null
  br i1 %.not, label %8, label %5

5:                                                ; preds = %2
  %6 = getelementptr inbounds i8, ptr %0, i64 40
  %7 = load ptr, ptr %6, align 8
  tail call void @_cmsFree(ptr noundef %7, ptr noundef nonnull %4) #13
  br label %8

8:                                                ; preds = %5, %2
  %9 = getelementptr inbounds i8, ptr %1, i64 16
  %10 = load ptr, ptr %9, align 8
  %.not14 = icmp eq ptr %10, null
  br i1 %.not14, label %14, label %11

11:                                               ; preds = %8
  %12 = getelementptr inbounds i8, ptr %0, i64 40
  %13 = load ptr, ptr %12, align 8
  tail call void @_cmsFree(ptr noundef %13, ptr noundef nonnull %10) #13
  br label %14

14:                                               ; preds = %11, %8
  %15 = getelementptr inbounds i8, ptr %1, i64 24
  %16 = load ptr, ptr %15, align 8
  %.not15 = icmp eq ptr %16, null
  br i1 %.not15, label %20, label %17

17:                                               ; preds = %14
  %18 = getelementptr inbounds i8, ptr %0, i64 40
  %19 = load ptr, ptr %18, align 8
  tail call void @_cmsFree(ptr noundef %19, ptr noundef nonnull %16) #13
  br label %20

20:                                               ; preds = %17, %14
  %21 = getelementptr inbounds i8, ptr %0, i64 40
  %22 = load ptr, ptr %21, align 8
  tail call void @_cmsFree(ptr noundef %22, ptr noundef nonnull %1) #13
  ret void
}